; Function Attrs: nounwind uwtable
define ptr @WebPDecodeARGB(ptr noundef %0, i64 noundef %1, ptr noundef writeonly captures(address_is_null) %2, ptr noundef writeonly captures(address_is_null) %3) local_unnamed_addr #0 {
  %5 = alloca %struct.WebPBitstreamFeatures, align 4
  %6 = alloca %struct.WebPDecParams, align 8
  %7 = alloca %struct.WebPDecBuffer, align 8
  call void @llvm.lifetime.start.p0(i64 112, ptr nonnull %6) #10
  call void @llvm.lifetime.start.p0(i64 120, ptr nonnull %7) #10
  %8 = call i32 @WebPInitDecBufferInternal(ptr noundef nonnull %7, i32 noundef 528) #10
  %.not.i = icmp eq i32 %8, 0
  br i1 %.not.i, label %Decode.exit, label %9

9:                                                ; preds = %4
  %10 = getelementptr inbounds nuw i8, ptr %6, i64 8
  call void @llvm.memset.p0.i64(ptr noundef nonnull align 8 dereferenceable(112) %10, i8 0, i64 104, i1 false)
  store ptr %7, ptr %6, align 8, !tbaa !23
  store i32 4, ptr %7, align 8, !tbaa !28
  %11 = getelementptr inbounds nuw i8, ptr %7, i64 4
  %12 = getelementptr inbounds nuw i8, ptr %7, i64 8
  call void @llvm.lifetime.start.p0(i64 40, ptr nonnull %5) #10
  %13 = icmp eq ptr %0, null
  br i1 %13, label %WebPGetInfo.exit.thread.i, label %GetFeatures.exit.i.i

GetFeatures.exit.i.i:                             ; preds = %9
  call void @llvm.memset.p0.i64(ptr noundef nonnull align 4 dereferenceable(40) %5, i8 0, i64 40, i1 false)
  %14 = getelementptr inbounds nuw i8, ptr %5, i64 4
  %15 = getelementptr inbounds nuw i8, ptr %5, i64 8
  %16 = getelementptr inbounds nuw i8, ptr %5, i64 12
  %17 = getelementptr inbounds nuw i8, ptr %5, i64 16
  %18 = call fastcc i32 @ParseHeadersInternal(ptr noundef nonnull %0, i64 noundef %1, ptr noundef nonnull %5, ptr noundef nonnull %14, ptr noundef nonnull %15, ptr noundef %16, ptr noundef nonnull %17, ptr noundef null)
  %.not.i.i = icmp eq i32 %18, 0
  br i1 %.not.i.i, label %19, label %WebPGetInfo.exit.thread.i

WebPGetInfo.exit.thread.i:                        ; preds = %GetFeatures.exit.i.i, %9
  call void @llvm.lifetime.end.p0(i64 40, ptr nonnull %5) #10
  br label %Decode.exit

19:                                               ; preds = %GetFeatures.exit.i.i
  %20 = load i32, ptr %5, align 4, !tbaa !67
  store i32 %20, ptr %11, align 4, !tbaa !3
  %21 = load i32, ptr %14, align 4, !tbaa !69
  store i32 %21, ptr %12, align 8, !tbaa !3
  call void @llvm.lifetime.end.p0(i64 40, ptr nonnull %5) #10
  %.not16.i = icmp eq ptr %2, null
  br i1 %.not16.i, label %23, label %22

22:                                               ; preds = %19
  store i32 %20, ptr %2, align 4, !tbaa !3
  br label %23

23:                                               ; preds = %22, %19
  %.not17.i = icmp eq ptr %3, null
  br i1 %.not17.i, label %25, label %24

24:                                               ; preds = %23
  store i32 %21, ptr %3, align 4, !tbaa !3
  br label %25

25:                                               ; preds = %24, %23
  %26 = call fastcc i32 @DecodeInto(ptr noundef nonnull %0, i64 noundef %1, ptr noundef %6)
  %.not18.i = icmp eq i32 %26, 0
  br i1 %.not18.i, label %27, label %Decode.exit

27:                                               ; preds = %25
  %28 = getelementptr inbounds nuw i8, ptr %7, i64 16
  %29 = load ptr, ptr %28, align 8
  br label %Decode.exit

Decode.exit:                                      ; preds = %4, %WebPGetInfo.exit.thread.i, %25, %27
  %.0.i = phi ptr [ %29, %27 ], [ null, %4 ], [ null, %25 ], [ null, %WebPGetInfo.exit.thread.i ]
  call void @llvm.lifetime.end.p0(i64 120, ptr nonnull %7) #10
  call void @llvm.lifetime.end.p0(i64 112, ptr nonnull %6) #10
  ret ptr %.0.i
}